#include <math.h>
#include <stdio.h>
#include <stdlib.h>
#include <string.h>

int main()
{
	char word[500]={'\0'},a[500][5]={'\0'};
	int i,j,n,m[500]={0},mm=0;
	scanf("%d",&n);
	scanf("%s",word);
	for(i=0;i<=strlen(word)-n;i++)
		for(j=0;j<n;j++)
			a[i][j]=word[i+j];
	for(i=0;i<=strlen(word)-n;i++)
		for(j=i;j<=strlen(word)-n;j++)
			if(strcmp(a[i],a[j])==0)
				m[i]++;
	for(i=0;i<=strlen(word)-n;i++)
		if(mm<m[i])
			mm=m[i];
	if(mm!=1)
	{
		printf("%d\n",mm);
	for(i=0;i<=strlen(word)-n;i++)
	{
		if(m[i]==mm)
		{
			for(j=0;j<n;j++)
				printf("%c",a[i][j]);
			printf("\n");
		}
	}
	}
	else printf("NO");
	return 0;
}