; ModuleID = '51/202.c'
source_filename = "51/202.c"
target datalayout = "e-m:e-p270:32:32-p271:32:32-p272:64:64-i64:64-f80:128-n8:16:32:64-S128"
target triple = "x86_64-pc-linux-gnu"

@.str = private unnamed_addr constant [3 x i8] c"%d\00", align 1
@.str.1 = private unnamed_addr constant [3 x i8] c"%s\00", align 1
@.str.2 = private unnamed_addr constant [4 x i8] c"%d\0A\00", align 1
@.str.3 = private unnamed_addr constant [3 x i8] c"%c\00", align 1
@.str.4 = private unnamed_addr constant [2 x i8] c"\0A\00", align 1
@.str.5 = private unnamed_addr constant [3 x i8] c"NO\00", align 1

; Function Attrs: noinline nounwind uwtable
define dso_local i32 @main() #0 {
  %1 = alloca i32, align 4
  %2 = alloca [500 x i8], align 16
  %3 = alloca [500 x [5 x i8]], align 16
  %4 = alloca i32, align 4
  %5 = alloca i32, align 4
  %6 = alloca i32, align 4
  %7 = alloca [500 x i32], align 16
  %8 = alloca i32, align 4
  store i32 0, i32* %1, align 4
  %9 = bitcast [500 x i8]* %2 to i8*
  call void @llvm.memset.p0i8.i64(i8* align 16 %9, i8 0, i64 500, i1 false)
  %10 = bitcast [500 x [5 x i8]]* %3 to i8*
  call void @llvm.memset.p0i8.i64(i8* align 16 %10, i8 0, i64 2500, i1 false)
  %11 = bitcast [500 x i32]* %7 to i8*
  call void @llvm.memset.p0i8.i64(i8* align 16 %11, i8 0, i64 2000, i1 false)
  store i32 0, i32* %8, align 4
  %12 = call i32 (i8*, ...) @__isoc99_scanf(i8* getelementptr inbounds ([3 x i8], [3 x i8]* @.str, i64 0, i64 0), i32* %6)
  %13 = getelementptr inbounds [500 x i8], [500 x i8]* %2, i64 0, i64 0
  %14 = call i32 (i8*, ...) @__isoc99_scanf(i8* getelementptr inbounds ([3 x i8], [3 x i8]* @.str.1, i64 0, i64 0), i8* %13)
  store i32 0, i32* %4, align 4
  br label %15

15:                                               ; preds = %46, %0
  %16 = load i32, i32* %4, align 4
  %17 = sext i32 %16 to i64
  %18 = getelementptr inbounds [500 x i8], [500 x i8]* %2, i64 0, i64 0
  %19 = call i64 @strlen(i8* %18) #4
  %20 = load i32, i32* %6, align 4
  %21 = sext i32 %20 to i64
  %22 = sub i64 %19, %21
  %23 = icmp ule i64 %17, %22
  br i1 %23, label %24, label %49

24:                                               ; preds = %15
  store i32 0, i32* %5, align 4
  br label %25

25:                                               ; preds = %42, %24
  %26 = load i32, i32* %5, align 4
  %27 = load i32, i32* %6, align 4
  %28 = icmp slt i32 %26, %27
  br i1 %28, label %29, label %45

29:                                               ; preds = %25
  %30 = load i32, i32* %4, align 4
  %31 = load i32, i32* %5, align 4
  %32 = add nsw i32 %30, %31
  %33 = sext i32 %32 to i64
  %34 = getelementptr inbounds [500 x i8], [500 x i8]* %2, i64 0, i64 %33
  %35 = load i8, i8* %34, align 1
  %36 = load i32, i32* %4, align 4
  %37 = sext i32 %36 to i64
  %38 = getelementptr inbounds [500 x [5 x i8]], [500 x [5 x i8]]* %3, i64 0, i64 %37
  %39 = load i32, i32* %5, align 4
  %40 = sext i32 %39 to i64
  %41 = getelementptr inbounds [5 x i8], [5 x i8]* %38, i64 0, i64 %40
  store i8 %35, i8* %41, align 1
  br label %42

42:                                               ; preds = %29
  %43 = load i32, i32* %5, align 4
  %44 = add nsw i32 %43, 1
  store i32 %44, i32* %5, align 4
  br label %25

45:                                               ; preds = %25
  br label %46

46:                                               ; preds = %45
  %47 = load i32, i32* %4, align 4
  %48 = add nsw i32 %47, 1
  store i32 %48, i32* %4, align 4
  br label %15

49:                                               ; preds = %15
  store i32 0, i32* %4, align 4
  br label %50

50:                                               ; preds = %92, %49
  %51 = load i32, i32* %4, align 4
  %52 = sext i32 %51 to i64
  %53 = getelementptr inbounds [500 x i8], [500 x i8]* %2, i64 0, i64 0
  %54 = call i64 @strlen(i8* %53) #4
  %55 = load i32, i32* %6, align 4
  %56 = sext i32 %55 to i64
  %57 = sub i64 %54, %56
  %58 = icmp ule i64 %52, %57
  br i1 %58, label %59, label %95

59:                                               ; preds = %50
  %60 = load i32, i32* %4, align 4
  store i32 %60, i32* %5, align 4
  br label %61

61:                                               ; preds = %88, %59
  %62 = load i32, i32* %5, align 4
  %63 = sext i32 %62 to i64
  %64 = getelementptr inbounds [500 x i8], [500 x i8]* %2, i64 0, i64 0
  %65 = call i64 @strlen(i8* %64) #4
  %66 = load i32, i32* %6, align 4
  %67 = sext i32 %66 to i64
  %68 = sub i64 %65, %67
  %69 = icmp ule i64 %63, %68
  br i1 %69, label %70, label %91

70:                                               ; preds = %61
  %71 = load i32, i32* %4, align 4
  %72 = sext i32 %71 to i64
  %73 = getelementptr inbounds [500 x [5 x i8]], [500 x [5 x i8]]* %3, i64 0, i64 %72
  %74 = getelementptr inbounds [5 x i8], [5 x i8]* %73, i64 0, i64 0
  %75 = load i32, i32* %5, align 4
  %76 = sext i32 %75 to i64
  %77 = getelementptr inbounds [500 x [5 x i8]], [500 x [5 x i8]]* %3, i64 0, i64 %76
  %78 = getelementptr inbounds [5 x i8], [5 x i8]* %77, i64 0, i64 0
  %79 = call i32 @strcmp(i8* %74, i8* %78) #4
  %80 = icmp eq i32 %79, 0
  br i1 %80, label %81, label %87

81:                                               ; preds = %70
  %82 = load i32, i32* %4, align 4
  %83 = sext i32 %82 to i64
  %84 = getelementptr inbounds [500 x i32], [500 x i32]* %7, i64 0, i64 %83
  %85 = load i32, i32* %84, align 4
  %86 = add nsw i32 %85, 1
  store i32 %86, i32* %84, align 4
  br label %87

87:                                               ; preds = %81, %70
  br label %88

88:                                               ; preds = %87
  %89 = load i32, i32* %5, align 4
  %90 = add nsw i32 %89, 1
  store i32 %90, i32* %5, align 4
  br label %61

91:                                               ; preds = %61
  br label %92

92:                                               ; preds = %91
  %93 = load i32, i32* %4, align 4
  %94 = add nsw i32 %93, 1
  store i32 %94, i32* %4, align 4
  br label %50

95:                                               ; preds = %50
  store i32 0, i32* %4, align 4
  br label %96

96:                                               ; preds = %118, %95
  %97 = load i32, i32* %4, align 4
  %98 = sext i32 %97 to i64
  %99 = getelementptr inbounds [500 x i8], [500 x i8]* %2, i64 0, i64 0
  %100 = call i64 @strlen(i8* %99) #4
  %101 = load i32, i32* %6, align 4
  %102 = sext i32 %101 to i64
  %103 = sub i64 %100, %102
  %104 = icmp ule i64 %98, %103
  br i1 %104, label %105, label %121

105:                                              ; preds = %96
  %106 = load i32, i32* %8, align 4
  %107 = load i32, i32* %4, align 4
  %108 = sext i32 %107 to i64
  %109 = getelementptr inbounds [500 x i32], [500 x i32]* %7, i64 0, i64 %108
  %110 = load i32, i32* %109, align 4
  %111 = icmp slt i32 %106, %110
  br i1 %111, label %112, label %117

112:                                              ; preds = %105
  %113 = load i32, i32* %4, align 4
  %114 = sext i32 %113 to i64
  %115 = getelementptr inbounds [500 x i32], [500 x i32]* %7, i64 0, i64 %114
  %116 = load i32, i32* %115, align 4
  store i32 %116, i32* %8, align 4
  br label %117

117:                                              ; preds = %112, %105
  br label %118

118:                                              ; preds = %117
  %119 = load i32, i32* %4, align 4
  %120 = add nsw i32 %119, 1
  store i32 %120, i32* %4, align 4
  br label %96

121:                                              ; preds = %96
  %122 = load i32, i32* %8, align 4
  %123 = icmp ne i32 %122, 1
  br i1 %123, label %124, label %168

124:                                              ; preds = %121
  %125 = load i32, i32* %8, align 4
  %126 = call i32 (i8*, ...) @printf(i8* getelementptr inbounds ([4 x i8], [4 x i8]* @.str.2, i64 0, i64 0), i32 %125)
  store i32 0, i32* %4, align 4
  br label %127

127:                                              ; preds = %164, %124
  %128 = load i32, i32* %4, align 4
  %129 = sext i32 %128 to i64
  %130 = getelementptr inbounds [500 x i8], [500 x i8]* %2, i64 0, i64 0
  %131 = call i64 @strlen(i8* %130) #4
  %132 = load i32, i32* %6, align 4
  %133 = sext i32 %132 to i64
  %134 = sub i64 %131, %133
  %135 = icmp ule i64 %129, %134
  br i1 %135, label %136, label %167

136:                                              ; preds = %127
  %137 = load i32, i32* %4, align 4
  %138 = sext i32 %137 to i64
  %139 = getelementptr inbounds [500 x i32], [500 x i32]* %7, i64 0, i64 %138
  %140 = load i32, i32* %139, align 4
  %141 = load i32, i32* %8, align 4
  %142 = icmp eq i32 %140, %141
  br i1 %142, label %143, label %163

143:                                              ; preds = %136
  store i32 0, i32* %5, align 4
  br label %144

144:                                              ; preds = %158, %143
  %145 = load i32, i32* %5, align 4
  %146 = load i32, i32* %6, align 4
  %147 = icmp slt i32 %145, %146
  br i1 %147, label %148, label %161

148:                                              ; preds = %144
  %149 = load i32, i32* %4, align 4
  %150 = sext i32 %149 to i64
  %151 = getelementptr inbounds [500 x [5 x i8]], [500 x [5 x i8]]* %3, i64 0, i64 %150
  %152 = load i32, i32* %5, align 4
  %153 = sext i32 %152 to i64
  %154 = getelementptr inbounds [5 x i8], [5 x i8]* %151, i64 0, i64 %153
  %155 = load i8, i8* %154, align 1
  %156 = sext i8 %155 to i32
  %157 = call i32 (i8*, ...) @printf(i8* getelementptr inbounds ([3 x i8], [3 x i8]* @.str.3, i64 0, i64 0), i32 %156)
  br label %158

158:                                              ; preds = %148
  %159 = load i32, i32* %5, align 4
  %160 = add nsw i32 %159, 1
  store i32 %160, i32* %5, align 4
  br label %144

161:                                              ; preds = %144
  %162 = call i32 (i8*, ...) @printf(i8* getelementptr inbounds ([2 x i8], [2 x i8]* @.str.4, i64 0, i64 0))
  br label %163

163:                                              ; preds = %161, %136
  br label %164

164:                                              ; preds = %163
  %165 = load i32, i32* %4, align 4
  %166 = add nsw i32 %165, 1
  store i32 %166, i32* %4, align 4
  br label %127

167:                                              ; preds = %127
  br label %170

168:                                              ; preds = %121
  %169 = call i32 (i8*, ...) @printf(i8* getelementptr inbounds ([3 x i8], [3 x i8]* @.str.5, i64 0, i64 0))
  br label %170

170:                                              ; preds = %168, %167
  ret i32 0
}

; Function Attrs: argmemonly nounwind willreturn
declare void @llvm.memset.p0i8.i64(i8* nocapture writeonly, i8, i64, i1 immarg) #1

declare dso_local i32 @__isoc99_scanf(i8*, ...) #2

; Function Attrs: nounwind readonly
declare dso_local i64 @strlen(i8*) #3

; Function Attrs: nounwind readonly
declare dso_local i32 @strcmp(i8*, i8*) #3

declare dso_local i32 @printf(i8*, ...) #2


!llvm.module.flags = !{!0}
!llvm.ident = !{!1}

!0 = !{i32 1, !"wchar_size", i32 4}
!1 = !{!"clang version 10.0.0-4ubuntu1 "}
